; Function Attrs: nounwind uwtable
define internal void @methodcaller_dealloc(ptr noundef %0) #0 {
  %2 = getelementptr i8, ptr %0, i64 8
  %.val = load ptr, ptr %2, align 8, !tbaa !19
  tail call void @PyObject_GC_UnTrack(ptr noundef %0) #7
  tail call void @methodcaller_clear(ptr noundef %0)
  %3 = getelementptr inbounds nuw i8, ptr %.val, i64 320
  %4 = load ptr, ptr %3, align 8, !tbaa !42
  tail call void %4(ptr noundef %0) #7
  %5 = load i32, ptr %.val, align 8, !tbaa !18
  %.not.i = icmp sgt i32 %5, -1
  br i1 %.not.i, label %6, label %Py_DECREF.exit

6:                                                ; preds = %1
  %7 = add nsw i32 %5, -1
  store i32 %7, ptr %.val, align 8, !tbaa !18
  %8 = icmp eq i32 %7, 0
  br i1 %8, label %9, label %Py_DECREF.exit

9:                                                ; preds = %6
  tail call void @_Py_Dealloc(ptr noundef nonnull %.val) #7
  br label %Py_DECREF.exit

Py_DECREF.exit:                                   ; preds = %1, %6, %9
  ret void
}